; Function Attrs: mustprogress nofree norecurse nosync nounwind willreturn memory(argmem: read) uwtable
define ptr @OSSL_STORE_INFO_get0_PARAMS(ptr noundef readonly captures(none) %0) local_unnamed_addr #7 {
  %2 = load i32, ptr %0, align 8, !tbaa !68
  %3 = icmp eq i32 %2, 2
  br i1 %3, label %4, label %7

4:                                                ; preds = %1
  %5 = getelementptr inbounds nuw i8, ptr %0, i64 8
  %6 = load ptr, ptr %5, align 8, !tbaa !8
  br label %7

7:                                                ; preds = %1, %4
  %.0 = phi ptr [ %6, %4 ], [ null, %1 ]
  ret ptr %.0
}